; ModuleID = 'source-C-CXX/53/89.c'
source_filename = "source-C-CXX/53/89.c"
target datalayout = "e-m:e-p270:32:32-p271:32:32-p272:64:64-i64:64-f80:128-n8:16:32:64-S128"
target triple = "x86_64-pc-linux-gnu"

@.str = private unnamed_addr constant [5 x i8] c"%d%d\00", align 1
@.str.1 = private unnamed_addr constant [3 x i8] c"%d\00", align 1

; Function Attrs: nofree nounwind sspstrong uwtable
define dso_local void @main() local_unnamed_addr #0 {
  %1 = alloca [100 x i32], align 16
  %2 = alloca i32, align 4
  %3 = alloca i32, align 4
  %4 = bitcast [100 x i32]* %1 to i8*
  call void @llvm.lifetime.start.p0i8(i64 400, i8* nonnull %4) #4
  call void @llvm.memset.p0i8.i64(i8* noundef nonnull align 16 dereferenceable(400) %4, i8 0, i64 400, i1 false)
  %5 = bitcast i32* %2 to i8*
  call void @llvm.lifetime.start.p0i8(i64 4, i8* nonnull %5) #4
  %6 = bitcast i32* %3 to i8*
  call void @llvm.lifetime.start.p0i8(i64 4, i8* nonnull %6) #4
  %7 = call i32 (i8*, ...) @__isoc99_scanf(i8* getelementptr inbounds ([5 x i8], [5 x i8]* @.str, i64 0, i64 0), i32* nonnull %2, i32* nonnull %3)
  %8 = load i32, i32* %2, align 4, !tbaa !5
  %9 = add i32 %8, 1
  %10 = getelementptr inbounds [100 x i32], [100 x i32]* %1, i64 0, i64 0
  %11 = add nsw i32 %8, -1
  %12 = load i32, i32* %3, align 4
  %13 = icmp slt i32 %8, 1
  br i1 %13, label %16, label %14

14:                                               ; preds = %0
  %15 = zext i32 %9 to i64
  br label %20

16:                                               ; preds = %0
  %17 = icmp eq i32 %8, 0
  br i1 %17, label %18, label %19, !llvm.loop !9

18:                                               ; preds = %16
  store i32 1, i32* %10, align 16, !tbaa !5
  br label %40

19:                                               ; preds = %16, %19
  br label %19

20:                                               ; preds = %14, %34
  %21 = phi i32 [ %36, %34 ], [ 1, %14 ]
  br label %22

22:                                               ; preds = %20, %27
  %23 = phi i32 [ %21, %20 ], [ %30, %27 ]
  %24 = phi i64 [ 1, %20 ], [ %32, %27 ]
  %25 = srem i32 %23, %11
  %26 = icmp eq i32 %25, 0
  br i1 %26, label %27, label %34

27:                                               ; preds = %22
  %28 = mul nsw i32 %23, %8
  %29 = sdiv i32 %28, %11
  %30 = add nsw i32 %12, %29
  %31 = getelementptr inbounds [100 x i32], [100 x i32]* %1, i64 0, i64 %24
  store i32 %30, i32* %31, align 4, !tbaa !5
  %32 = add nuw nsw i64 %24, 1
  %33 = icmp eq i64 %32, %15
  br i1 %33, label %38, label %22, !llvm.loop !11

34:                                               ; preds = %22
  %35 = trunc i64 %24 to i32
  %36 = add nuw nsw i32 %21, 1
  %37 = icmp eq i32 %9, %35
  br i1 %37, label %39, label %20, !llvm.loop !9

38:                                               ; preds = %27
  store i32 %21, i32* %10, align 16, !tbaa !5
  br label %40

39:                                               ; preds = %34
  store i32 %21, i32* %10, align 16, !tbaa !5
  br label %40

40:                                               ; preds = %39, %38, %18
  %41 = sext i32 %8 to i64
  %42 = getelementptr inbounds [100 x i32], [100 x i32]* %1, i64 0, i64 %41
  %43 = load i32, i32* %42, align 4, !tbaa !5
  %44 = call i32 (i8*, ...) @printf(i8* nonnull dereferenceable(1) getelementptr inbounds ([3 x i8], [3 x i8]* @.str.1, i64 0, i64 0), i32 %43)
  call void @llvm.lifetime.end.p0i8(i64 4, i8* nonnull %6) #4
  call void @llvm.lifetime.end.p0i8(i64 4, i8* nonnull %5) #4
  call void @llvm.lifetime.end.p0i8(i64 400, i8* nonnull %4) #4
  ret void
}

; Function Attrs: argmemonly mustprogress nofree nosync nounwind willreturn
declare void @llvm.lifetime.start.p0i8(i64 immarg, i8* nocapture) #1

; Function Attrs: argmemonly mustprogress nofree nounwind willreturn writeonly
declare void @llvm.memset.p0i8.i64(i8* nocapture writeonly, i8, i64, i1 immarg) #2

; Function Attrs: nofree nounwind
declare noundef i32 @__isoc99_scanf(i8* nocapture noundef readonly, ...) local_unnamed_addr #3

; Function Attrs: nofree nounwind
declare noundef i32 @printf(i8* nocapture noundef readonly, ...) local_unnamed_addr #3

; Function Attrs: argmemonly mustprogress nofree nosync nounwind willreturn
declare void @llvm.lifetime.end.p0i8(i64 immarg, i8* nocapture) #1


!llvm.module.flags = !{!0, !1, !2, !3}
!llvm.ident = !{!4}

!0 = !{i32 1, !"wchar_size", i32 4}
!1 = !{i32 7, !"PIC Level", i32 2}
!2 = !{i32 7, !"PIE Level", i32 2}
!3 = !{i32 7, !"uwtable", i32 1}
!4 = !{!"clang version 13.0.0"}
!5 = !{!6, !6, i64 0}
!6 = !{!"int", !7, i64 0}
!7 = !{!"omnipotent char", !8, i64 0}
!8 = !{!"Simple C/C++ TBAA"}
!9 = distinct !{!9, !10}
!10 = !{!"llvm.loop.mustprogress"}
!11 = distinct !{!11, !10}
